target datalayout = "e-m:e-p270:32:32-p271:32:32-p272:64:64-i64:64-i128:128-f80:128-n8:16:32:64-S128"
target triple = "x86_64-pc-linux-gnu"

%struct.H5HF_t = type { ptr, ptr }
%struct.H5HF_hdr_t = type { %struct.H5C_cache_entry_t, i32, i32, i8, i8, i8, i8, %struct.H5HF_dtable_t, i64, i64, i32, i64, i64, %struct.H5O_pline_t, i64, i32, i64, i64, i64, i64, i64, i64, i64, i64, i64, i64, i64, i32, ptr, i64, i8, i8, i8, ptr, i32, ptr, %struct.H5HF_block_iter_t, ptr, i64, i8, i8, i64, i8, i8, i8, i8 }
%struct.H5C_cache_entry_t = type { ptr, i64, i64, ptr, i8, ptr, i8, i8, i8, i8, i32, i8, i8, i8, i8, i8, i32, ptr, i32, i32, i32, i32, i32, i8, i8, ptr, ptr, ptr, ptr, ptr, ptr, i8, i32, i8, i64, ptr, i64, i64, i32, i8, i32, i32, i8, ptr, ptr, ptr }
%struct.H5HF_dtable_t = type { %struct.H5HF_dtable_cparam_t, i64, i32, i32, i32, i32, i32, i32, i32, i64, ptr, ptr, ptr, ptr }
%struct.H5HF_dtable_cparam_t = type { i32, i64, i64, i32, i32 }
%struct.H5O_pline_t = type { %struct.H5O_shared_t, i32, i64, i64, ptr }
%struct.H5O_shared_t = type { i32, ptr, i32, %union.anon }
%union.anon = type { %struct.H5O_mesg_loc_t }
%struct.H5O_mesg_loc_t = type { i32, i64 }
%struct.H5HF_block_iter_t = type { i8, ptr }

@H5HF_init_g = global i8 0, align 1
@H5_libterm_g = external global i8, align 1
@.str = private unnamed_addr constant [98 x i8] c"generated/home/dtcxzyw/WorkSpace/Projects/compilers/llvm-opt-benchmark/bench/hdf5/hdf5/src/H5HF.c\00", align 1
@H5E_HEAP_g = external global i64, align 8
@H5E_UNSUPPORTED_g = external global i64, align 8
@H5E_VERSION_g = external global i64, align 8
@.str.14 = private unnamed_addr constant [26 x i8] c"incorrect heap ID version\00", align 1
@H5E_CANTGET_g = external global i64, align 8
@stderr = external global ptr, align 8
@.str.18 = private unnamed_addr constant [37 x i8] c"%s: Heap ID type not supported yet!\0A\00", align 1
@.str.19 = private unnamed_addr constant [31 x i8] c"heap ID type not supported yet\00", align 1
@__func__.H5HF_read = private unnamed_addr constant [10 x i8] c"H5HF_read\00", align 1
@.str.21 = private unnamed_addr constant [36 x i8] c"can't read object from fractal heap\00", align 1
@.str.22 = private unnamed_addr constant [43 x i8] c"can't read 'huge' object from fractal heap\00", align 1
@.str.23 = private unnamed_addr constant [43 x i8] c"can't read 'tiny' object from fractal heap\00", align 1

; Function Attrs: nounwind uwtable
define i32 @H5HF_read(ptr noundef %0, ptr noundef %1, ptr noundef %2) #0 {
  %4 = alloca ptr, align 8
  %5 = alloca ptr, align 8
  %6 = alloca ptr, align 8
  %7 = alloca ptr, align 8
  %8 = alloca i8, align 1
  %9 = alloca i32, align 4
  %10 = alloca i8, align 1
  store ptr %0, ptr %4, align 8, !tbaa !17
  store ptr %1, ptr %5, align 8, !tbaa !3
  store ptr %2, ptr %6, align 8, !tbaa !3
  call void @llvm.lifetime.start.p0(i64 8, ptr %7) #6
  %11 = load ptr, ptr %5, align 8, !tbaa !3
  store ptr %11, ptr %7, align 8, !tbaa !52
  call void @llvm.lifetime.start.p0(i64 1, ptr %8) #6
  call void @llvm.lifetime.start.p0(i64 4, ptr %9) #6
  store i32 0, ptr %9, align 4, !tbaa !24
  call void @llvm.lifetime.start.p0(i64 1, ptr %10) #6
  store i8 0, ptr %10, align 1, !tbaa !9
  %12 = load i8, ptr @H5HF_init_g, align 1, !tbaa !9, !range !11, !noundef !12
  %13 = trunc i8 %12 to i1
  br i1 %13, label %18, label %14

14:                                               ; preds = %3
  %15 = load i8, ptr @H5_libterm_g, align 1, !tbaa !9, !range !11, !noundef !12
  %16 = trunc i8 %15 to i1
  %17 = xor i1 %16, true
  br label %18

18:                                               ; preds = %14, %3
  %19 = phi i1 [ false, %3 ], [ %17, %14 ]
  %20 = xor i1 %19, true
  %21 = xor i1 %20, true
  %22 = zext i1 %21 to i32
  %23 = sext i32 %22 to i64
  %24 = call i64 @llvm.expect.i64(i64 %23, i64 0)
  %25 = icmp ne i64 %24, 0
  br i1 %25, label %26, label %27

26:                                               ; preds = %18
  store i8 1, ptr @H5HF_init_g, align 1, !tbaa !9
  br label %27

27:                                               ; preds = %26, %18
  %28 = load i8, ptr @H5HF_init_g, align 1, !tbaa !9, !range !11, !noundef !12
  %29 = trunc i8 %28 to i1
  br i1 %29, label %34, label %30

30:                                               ; preds = %27
  %31 = load i8, ptr @H5_libterm_g, align 1, !tbaa !9, !range !11, !noundef !12
  %32 = trunc i8 %31 to i1
  %33 = xor i1 %32, true
  br label %34

34:                                               ; preds = %30, %27
  %35 = phi i1 [ true, %27 ], [ %33, %30 ]
  %36 = xor i1 %35, true
  %37 = xor i1 %36, true
  %38 = zext i1 %37 to i32
  %39 = sext i32 %38 to i64
  %40 = call i64 @llvm.expect.i64(i64 %39, i64 1)
  %41 = icmp ne i64 %40, 0
  br i1 %41, label %42, label %199

42:                                               ; preds = %34
  %43 = load ptr, ptr %7, align 8, !tbaa !52
  %44 = load i8, ptr %43, align 1, !tbaa !54
  store i8 %44, ptr %8, align 1, !tbaa !54
  %45 = load i8, ptr %8, align 1, !tbaa !54
  %46 = zext i8 %45 to i32
  %47 = and i32 %46, 192
  %48 = icmp ne i32 %47, 0
  br i1 %48, label %49, label %68

49:                                               ; preds = %42
  br label %50

50:                                               ; preds = %49
  br label %51

51:                                               ; preds = %50
  br label %52

52:                                               ; preds = %51
  %53 = load i64, ptr @H5E_HEAP_g, align 8, !tbaa !7
  %54 = load i64, ptr @H5E_VERSION_g, align 8, !tbaa !7
  %55 = call i32 (ptr, ptr, i32, i64, i64, ptr, ...) @H5E_printf_stack(ptr noundef @.str, ptr noundef @__func__.H5HF_read, i32 noundef 512, i64 noundef %53, i64 noundef %54, ptr noundef @.str.14)
  br label %56

56:                                               ; preds = %52
  br label %57

57:                                               ; preds = %56
  store i8 1, ptr %10, align 1, !tbaa !9
  %58 = load i8, ptr %10, align 1, !tbaa !9, !range !11, !noundef !12
  %59 = trunc i8 %58 to i1
  %60 = zext i1 %59 to i8
  store i8 %60, ptr %10, align 1, !tbaa !9
  br label %61

61:                                               ; preds = %57
  br label %62

62:                                               ; preds = %61
  br label %63

63:                                               ; preds = %62
  store i32 -1, ptr %9, align 4, !tbaa !24
  br label %198

64:                                               ; No predecessors!
  br label %65

65:                                               ; preds = %64
  br label %66

66:                                               ; preds = %65
  br label %67

67:                                               ; preds = %66
  br label %68

68:                                               ; preds = %67, %42
  %69 = load ptr, ptr %4, align 8, !tbaa !17
  %70 = getelementptr inbounds nuw %struct.H5HF_t, ptr %69, i32 0, i32 1
  %71 = load ptr, ptr %70, align 8, !tbaa !23
  %72 = load ptr, ptr %4, align 8, !tbaa !17
  %73 = getelementptr inbounds nuw %struct.H5HF_t, ptr %72, i32 0, i32 0
  %74 = load ptr, ptr %73, align 8, !tbaa !21
  %75 = getelementptr inbounds nuw %struct.H5HF_hdr_t, ptr %74, i32 0, i32 28
  store ptr %71, ptr %75, align 8, !tbaa !26
  %76 = load i8, ptr %8, align 1, !tbaa !54
  %77 = zext i8 %76 to i32
  %78 = and i32 %77, 48
  %79 = icmp eq i32 %78, 0
  br i1 %79, label %80, label %108

80:                                               ; preds = %68
  %81 = load ptr, ptr %4, align 8, !tbaa !17
  %82 = getelementptr inbounds nuw %struct.H5HF_t, ptr %81, i32 0, i32 0
  %83 = load ptr, ptr %82, align 8, !tbaa !21
  %84 = load ptr, ptr %7, align 8, !tbaa !52
  %85 = load ptr, ptr %6, align 8, !tbaa !3
  %86 = call i32 @H5HF__man_read(ptr noundef %83, ptr noundef %84, ptr noundef %85)
  %87 = icmp slt i32 %86, 0
  br i1 %87, label %88, label %107

88:                                               ; preds = %80
  br label %89

89:                                               ; preds = %88
  br label %90

90:                                               ; preds = %89
  br label %91

91:                                               ; preds = %90
  %92 = load i64, ptr @H5E_HEAP_g, align 8, !tbaa !7
  %93 = load i64, ptr @H5E_CANTGET_g, align 8, !tbaa !7
  %94 = call i32 (ptr, ptr, i32, i64, i64, ptr, ...) @H5E_printf_stack(ptr noundef @.str, ptr noundef @__func__.H5HF_read, i32 noundef 521, i64 noundef %92, i64 noundef %93, ptr noundef @.str.21)
  br label %95

95:                                               ; preds = %91
  br label %96

96:                                               ; preds = %95
  store i8 1, ptr %10, align 1, !tbaa !9
  %97 = load i8, ptr %10, align 1, !tbaa !9, !range !11, !noundef !12
  %98 = trunc i8 %97 to i1
  %99 = zext i1 %98 to i8
  store i8 %99, ptr %10, align 1, !tbaa !9
  br label %100

100:                                              ; preds = %96
  br label %101

101:                                              ; preds = %100
  br label %102

102:                                              ; preds = %101
  store i32 -1, ptr %9, align 4, !tbaa !24
  br label %198

103:                                              ; No predecessors!
  br label %104

104:                                              ; preds = %103
  br label %105

105:                                              ; preds = %104
  br label %106

106:                                              ; preds = %105
  br label %107

107:                                              ; preds = %106, %80
  br label %197

108:                                              ; preds = %68
  %109 = load i8, ptr %8, align 1, !tbaa !54
  %110 = zext i8 %109 to i32
  %111 = and i32 %110, 48
  %112 = icmp eq i32 %111, 16
  br i1 %112, label %113, label %141

113:                                              ; preds = %108
  %114 = load ptr, ptr %4, align 8, !tbaa !17
  %115 = getelementptr inbounds nuw %struct.H5HF_t, ptr %114, i32 0, i32 0
  %116 = load ptr, ptr %115, align 8, !tbaa !21
  %117 = load ptr, ptr %7, align 8, !tbaa !52
  %118 = load ptr, ptr %6, align 8, !tbaa !3
  %119 = call i32 @H5HF__huge_read(ptr noundef %116, ptr noundef %117, ptr noundef %118)
  %120 = icmp slt i32 %119, 0
  br i1 %120, label %121, label %140

121:                                              ; preds = %113
  br label %122

122:                                              ; preds = %121
  br label %123

123:                                              ; preds = %122
  br label %124

124:                                              ; preds = %123
  %125 = load i64, ptr @H5E_HEAP_g, align 8, !tbaa !7
  %126 = load i64, ptr @H5E_CANTGET_g, align 8, !tbaa !7
  %127 = call i32 (ptr, ptr, i32, i64, i64, ptr, ...) @H5E_printf_stack(ptr noundef @.str, ptr noundef @__func__.H5HF_read, i32 noundef 526, i64 noundef %125, i64 noundef %126, ptr noundef @.str.22)
  br label %128

128:                                              ; preds = %124
  br label %129

129:                                              ; preds = %128
  store i8 1, ptr %10, align 1, !tbaa !9
  %130 = load i8, ptr %10, align 1, !tbaa !9, !range !11, !noundef !12
  %131 = trunc i8 %130 to i1
  %132 = zext i1 %131 to i8
  store i8 %132, ptr %10, align 1, !tbaa !9
  br label %133

133:                                              ; preds = %129
  br label %134

134:                                              ; preds = %133
  br label %135

135:                                              ; preds = %134
  store i32 -1, ptr %9, align 4, !tbaa !24
  br label %198

136:                                              ; No predecessors!
  br label %137

137:                                              ; preds = %136
  br label %138

138:                                              ; preds = %137
  br label %139

139:                                              ; preds = %138
  br label %140

140:                                              ; preds = %139, %113
  br label %196

141:                                              ; preds = %108
  %142 = load i8, ptr %8, align 1, !tbaa !54
  %143 = zext i8 %142 to i32
  %144 = and i32 %143, 48
  %145 = icmp eq i32 %144, 32
  br i1 %145, label %146, label %174

146:                                              ; preds = %141
  %147 = load ptr, ptr %4, align 8, !tbaa !17
  %148 = getelementptr inbounds nuw %struct.H5HF_t, ptr %147, i32 0, i32 0
  %149 = load ptr, ptr %148, align 8, !tbaa !21
  %150 = load ptr, ptr %7, align 8, !tbaa !52
  %151 = load ptr, ptr %6, align 8, !tbaa !3
  %152 = call i32 @H5HF__tiny_read(ptr noundef %149, ptr noundef %150, ptr noundef %151)
  %153 = icmp slt i32 %152, 0
  br i1 %153, label %154, label %173

154:                                              ; preds = %146
  br label %155

155:                                              ; preds = %154
  br label %156

156:                                              ; preds = %155
  br label %157

157:                                              ; preds = %156
  %158 = load i64, ptr @H5E_HEAP_g, align 8, !tbaa !7
  %159 = load i64, ptr @H5E_CANTGET_g, align 8, !tbaa !7
  %160 = call i32 (ptr, ptr, i32, i64, i64, ptr, ...) @H5E_printf_stack(ptr noundef @.str, ptr noundef @__func__.H5HF_read, i32 noundef 531, i64 noundef %158, i64 noundef %159, ptr noundef @.str.23)
  br label %161

161:                                              ; preds = %157
  br label %162

162:                                              ; preds = %161
  store i8 1, ptr %10, align 1, !tbaa !9
  %163 = load i8, ptr %10, align 1, !tbaa !9, !range !11, !noundef !12
  %164 = trunc i8 %163 to i1
  %165 = zext i1 %164 to i8
  store i8 %165, ptr %10, align 1, !tbaa !9
  br label %166

166:                                              ; preds = %162
  br label %167

167:                                              ; preds = %166
  br label %168

168:                                              ; preds = %167
  store i32 -1, ptr %9, align 4, !tbaa !24
  br label %198

169:                                              ; No predecessors!
  br label %170

170:                                              ; preds = %169
  br label %171

171:                                              ; preds = %170
  br label %172

172:                                              ; preds = %171
  br label %173

173:                                              ; preds = %172, %146
  br label %195

174:                                              ; preds = %141
  %175 = load ptr, ptr @stderr, align 8, !tbaa !55
  %176 = call i32 (ptr, ptr, ...) @fprintf(ptr noundef %175, ptr noundef @.str.18, ptr noundef @__func__.H5HF_read) #6
  br label %177

177:                                              ; preds = %174
  br label %178

178:                                              ; preds = %177
  br label %179

179:                                              ; preds = %178
  %180 = load i64, ptr @H5E_HEAP_g, align 8, !tbaa !7
  %181 = load i64, ptr @H5E_UNSUPPORTED_g, align 8, !tbaa !7
  %182 = call i32 (ptr, ptr, i32, i64, i64, ptr, ...) @H5E_printf_stack(ptr noundef @.str, ptr noundef @__func__.H5HF_read, i32 noundef 535, i64 noundef %180, i64 noundef %181, ptr noundef @.str.19)
  br label %183

183:                                              ; preds = %179
  br label %184

184:                                              ; preds = %183
  store i8 1, ptr %10, align 1, !tbaa !9
  %185 = load i8, ptr %10, align 1, !tbaa !9, !range !11, !noundef !12
  %186 = trunc i8 %185 to i1
  %187 = zext i1 %186 to i8
  store i8 %187, ptr %10, align 1, !tbaa !9
  br label %188

188:                                              ; preds = %184
  br label %189

189:                                              ; preds = %188
  br label %190

190:                                              ; preds = %189
  store i32 -1, ptr %9, align 4, !tbaa !24
  br label %198

191:                                              ; No predecessors!
  br label %192

192:                                              ; preds = %191
  br label %193

193:                                              ; preds = %192
  br label %194

194:                                              ; preds = %193
  br label %195

195:                                              ; preds = %194, %173
  br label %196

196:                                              ; preds = %195, %140
  br label %197

197:                                              ; preds = %196, %107
  br label %198

198:                                              ; preds = %197, %190, %168, %135, %102, %63
  br label %199

199:                                              ; preds = %198, %34
  %200 = load i32, ptr %9, align 4, !tbaa !24
  call void @llvm.lifetime.end.p0(i64 1, ptr %10) #6
  call void @llvm.lifetime.end.p0(i64 4, ptr %9) #6
  call void @llvm.lifetime.end.p0(i64 1, ptr %8) #6
  call void @llvm.lifetime.end.p0(i64 8, ptr %7) #6
  ret i32 %200
}