; Function Attrs: nounwind uwtable
define range(i32 -1, 1) i32 @H5HF_read(ptr noundef readonly captures(none) %0, ptr noundef %1, ptr noundef %2) local_unnamed_addr #2 {
  %4 = load i8, ptr @H5HF_init_g, align 1, !tbaa !3, !range !7, !noundef !8
  %5 = trunc nuw i8 %4 to i1
  %6 = load i8, ptr @H5_libterm_g, align 1, !range !7
  %7 = trunc nuw i8 %6 to i1
  %8 = select i1 %5, i1 true, i1 %7
  br i1 %8, label %9, label %.thread, !prof !9

.thread:                                          ; preds = %3
  store i8 1, ptr @H5HF_init_g, align 1, !tbaa !3
  br label %12

9:                                                ; preds = %3
  %10 = xor i1 %7, true
  %11 = select i1 %5, i1 true, i1 %10
  br i1 %11, label %12, label %51, !prof !10

12:                                               ; preds = %.thread, %9
  %13 = load i8, ptr %1, align 1, !tbaa !45
  %.not = icmp ult i8 %13, 64
  br i1 %.not, label %18, label %14

14:                                               ; preds = %12
  %15 = load i64, ptr @H5E_HEAP_g, align 8, !tbaa !11
  %16 = load i64, ptr @H5E_VERSION_g, align 8, !tbaa !11
  %17 = tail call i32 (ptr, ptr, i32, i64, i64, ptr, ...) @H5E_printf_stack(ptr noundef nonnull @.str, ptr noundef nonnull @__func__.H5HF_read, i32 noundef 512, i64 noundef %15, i64 noundef %16, ptr noundef nonnull @.str.14) #5
  br label %51

18:                                               ; preds = %12
  %19 = getelementptr inbounds nuw i8, ptr %0, i64 8
  %20 = load ptr, ptr %19, align 8, !tbaa !18
  %21 = load ptr, ptr %0, align 8, !tbaa !13
  %22 = getelementptr inbounds nuw i8, ptr %21, i64 600
  store ptr %20, ptr %22, align 8, !tbaa !19
  %23 = lshr i8 %13, 4
  switch i8 %23, label %.unreachabledefault [
    i8 0, label %24
    i8 1, label %31
    i8 2, label %38
    i8 3, label %45
  ]

24:                                               ; preds = %18
  %25 = tail call i32 @H5HF__man_read(ptr noundef nonnull %21, ptr noundef nonnull %1, ptr noundef %2) #5
  %26 = icmp slt i32 %25, 0
  br i1 %26, label %27, label %51

27:                                               ; preds = %24
  %28 = load i64, ptr @H5E_HEAP_g, align 8, !tbaa !11
  %29 = load i64, ptr @H5E_CANTGET_g, align 8, !tbaa !11
  %30 = tail call i32 (ptr, ptr, i32, i64, i64, ptr, ...) @H5E_printf_stack(ptr noundef nonnull @.str, ptr noundef nonnull @__func__.H5HF_read, i32 noundef 521, i64 noundef %28, i64 noundef %29, ptr noundef nonnull @.str.21) #5
  br label %51

31:                                               ; preds = %18
  %32 = tail call i32 @H5HF__huge_read(ptr noundef nonnull %21, ptr noundef nonnull %1, ptr noundef %2) #5
  %33 = icmp slt i32 %32, 0
  br i1 %33, label %34, label %51

34:                                               ; preds = %31
  %35 = load i64, ptr @H5E_HEAP_g, align 8, !tbaa !11
  %36 = load i64, ptr @H5E_CANTGET_g, align 8, !tbaa !11
  %37 = tail call i32 (ptr, ptr, i32, i64, i64, ptr, ...) @H5E_printf_stack(ptr noundef nonnull @.str, ptr noundef nonnull @__func__.H5HF_read, i32 noundef 526, i64 noundef %35, i64 noundef %36, ptr noundef nonnull @.str.22) #5
  br label %51

38:                                               ; preds = %18
  %39 = tail call i32 @H5HF__tiny_read(ptr noundef nonnull %21, ptr noundef nonnull %1, ptr noundef %2) #5
  %40 = icmp slt i32 %39, 0
  br i1 %40, label %41, label %51

41:                                               ; preds = %38
  %42 = load i64, ptr @H5E_HEAP_g, align 8, !tbaa !11
  %43 = load i64, ptr @H5E_CANTGET_g, align 8, !tbaa !11
  %44 = tail call i32 (ptr, ptr, i32, i64, i64, ptr, ...) @H5E_printf_stack(ptr noundef nonnull @.str, ptr noundef nonnull @__func__.H5HF_read, i32 noundef 531, i64 noundef %42, i64 noundef %43, ptr noundef nonnull @.str.23) #5
  br label %51

.unreachabledefault:                              ; preds = %18
  unreachable

45:                                               ; preds = %18
  %46 = load ptr, ptr @stderr, align 8, !tbaa !46
  %47 = tail call i32 (ptr, ptr, ...) @fprintf(ptr noundef %46, ptr noundef nonnull @.str.18, ptr noundef nonnull @__func__.H5HF_read) #6
  %48 = load i64, ptr @H5E_HEAP_g, align 8, !tbaa !11
  %49 = load i64, ptr @H5E_UNSUPPORTED_g, align 8, !tbaa !11
  %50 = tail call i32 (ptr, ptr, i32, i64, i64, ptr, ...) @H5E_printf_stack(ptr noundef nonnull @.str, ptr noundef nonnull @__func__.H5HF_read, i32 noundef 535, i64 noundef %48, i64 noundef %49, ptr noundef nonnull @.str.19) #5
  br label %51

51:                                               ; preds = %14, %27, %34, %41, %45, %31, %38, %24, %9
  %.0 = phi i32 [ -1, %14 ], [ -1, %27 ], [ 0, %24 ], [ -1, %34 ], [ 0, %31 ], [ -1, %41 ], [ 0, %38 ], [ -1, %45 ], [ 0, %9 ]
  ret i32 %.0
}